; Function Attrs: nounwind uwtable
define hidden zeroext i1 @Wayland_SetWindowMouseRect(ptr noundef readonly captures(none) %0, ptr noundef readonly captures(none) %1) local_unnamed_addr #0 {
  %3 = getelementptr inbounds nuw i8, ptr %0, i64 1656
  %4 = load ptr, ptr %3, align 8
  %5 = getelementptr inbounds nuw i8, ptr %4, i64 80
  %6 = load ptr, ptr %5, align 8
  %.not = icmp eq ptr %6, null
  br i1 %.not, label %7, label %9

7:                                                ; preds = %2
  %8 = tail call zeroext i1 (ptr, ...) @SDL_SetError_REAL(ptr noundef nonnull @.str.6) #15
  br label %12

9:                                                ; preds = %2
  %10 = getelementptr inbounds nuw i8, ptr %1, i64 392
  %11 = load ptr, ptr %10, align 8
  tail call void @Wayland_DisplayUpdatePointerGrabs(ptr noundef nonnull %4, ptr noundef %11) #15
  br label %12

12:                                               ; preds = %9, %7
  %.0 = phi i1 [ true, %9 ], [ %8, %7 ]
  ret i1 %.0
}